target datalayout = "e-m:e-p270:32:32-p271:32:32-p272:64:64-i64:64-i128:128-f80:128-n8:16:32:64-S128"
target triple = "x86_64-pc-linux-gnu"

%struct.lua_TValue = type { %union.Value, [1 x i32], i32 }
%union.Value = type { ptr }
%struct.lua_State = type { i8, i8, i8, i8, i8, i8, i8, ptr, ptr, ptr, ptr, ptr, ptr, ptr, ptr, i32, i32, i16, i16, i32, ptr, ptr, ptr, ptr, ptr }
%struct.TString = type { i8, i8, i8, i16, ptr, i32, i32, [1 x i8] }
%struct.__va_list_tag = type { i32, i32, ptr, ptr }

; Function Attrs: mustprogress uwtable
define hidden noundef ptr @_Z17luaO_pushvfstringP9lua_StatePKcP13__va_list_tag(ptr noundef %0, ptr noundef %1, ptr noundef %2) #2 {
  %4 = alloca ptr, align 8
  %5 = alloca ptr, align 8
  %6 = alloca ptr, align 8
  %7 = alloca [512 x i8], align 16
  %8 = alloca ptr, align 8
  store ptr %0, ptr %4, align 8, !tbaa !29
  store ptr %1, ptr %5, align 8, !tbaa !22
  store ptr %2, ptr %6, align 8, !tbaa !31
  call void @llvm.lifetime.start.p0(i64 512, ptr %7) #9
  %9 = getelementptr inbounds [512 x i8], ptr %7, i64 0, i64 0
  %10 = load ptr, ptr %5, align 8, !tbaa !22
  %11 = load ptr, ptr %6, align 8, !tbaa !31
  %12 = call i32 @vsnprintf(ptr noundef %9, i64 noundef 512, ptr noundef %10, ptr noundef %11) #9
  call void @llvm.lifetime.start.p0(i64 8, ptr %8) #9
  %13 = load ptr, ptr %4, align 8, !tbaa !29
  %14 = getelementptr inbounds nuw %struct.lua_State, ptr %13, i32 0, i32 7
  %15 = load ptr, ptr %14, align 8, !tbaa !33
  store ptr %15, ptr %8, align 8, !tbaa !11
  %16 = load ptr, ptr %4, align 8, !tbaa !29
  %17 = getelementptr inbounds [512 x i8], ptr %7, i64 0, i64 0
  %18 = getelementptr inbounds [512 x i8], ptr %7, i64 0, i64 0
  %19 = call i64 @strlen(ptr noundef %18) #10
  %20 = call noundef ptr @_Z12luaS_newlstrP9lua_StatePKcm(ptr noundef %16, ptr noundef %17, i64 noundef %19)
  %21 = load ptr, ptr %8, align 8, !tbaa !11
  %22 = getelementptr inbounds nuw %struct.lua_TValue, ptr %21, i32 0, i32 0
  store ptr %20, ptr %22, align 8, !tbaa !10
  %23 = load ptr, ptr %8, align 8, !tbaa !11
  %24 = getelementptr inbounds nuw %struct.lua_TValue, ptr %23, i32 0, i32 2
  store i32 5, ptr %24, align 4, !tbaa !14
  call void @llvm.lifetime.end.p0(i64 8, ptr %8) #9
  %25 = load ptr, ptr %4, align 8, !tbaa !29
  %26 = getelementptr inbounds nuw %struct.lua_State, ptr %25, i32 0, i32 11
  %27 = load ptr, ptr %26, align 8, !tbaa !43
  %28 = load ptr, ptr %4, align 8, !tbaa !29
  %29 = getelementptr inbounds nuw %struct.lua_State, ptr %28, i32 0, i32 7
  %30 = load ptr, ptr %29, align 8, !tbaa !33
  %31 = ptrtoint ptr %27 to i64
  %32 = ptrtoint ptr %30 to i64
  %33 = sub i64 %31, %32
  %34 = icmp sle i64 %33, 16
  br i1 %34, label %35, label %37

35:                                               ; preds = %3
  %36 = load ptr, ptr %4, align 8, !tbaa !29
  call void @_Z14luaD_growstackP9lua_Statei(ptr noundef %36, i32 noundef 1)
  br label %38

37:                                               ; preds = %3
  br label %38

38:                                               ; preds = %37, %35
  %39 = load ptr, ptr %4, align 8, !tbaa !29
  %40 = getelementptr inbounds nuw %struct.lua_State, ptr %39, i32 0, i32 7
  %41 = load ptr, ptr %40, align 8, !tbaa !33
  %42 = getelementptr inbounds nuw %struct.lua_TValue, ptr %41, i32 1
  store ptr %42, ptr %40, align 8, !tbaa !33
  %43 = load ptr, ptr %4, align 8, !tbaa !29
  %44 = getelementptr inbounds nuw %struct.lua_State, ptr %43, i32 0, i32 7
  %45 = load ptr, ptr %44, align 8, !tbaa !33
  %46 = getelementptr inbounds %struct.lua_TValue, ptr %45, i64 -1
  %47 = getelementptr inbounds nuw %struct.lua_TValue, ptr %46, i32 0, i32 0
  %48 = load ptr, ptr %47, align 8, !tbaa !10
  %49 = getelementptr inbounds nuw %struct.TString, ptr %48, i32 0, i32 7
  %50 = getelementptr inbounds [1 x i8], ptr %49, i64 0, i64 0
  call void @llvm.lifetime.end.p0(i64 512, ptr %7) #9
  ret ptr %50
}

; Function Attrs: mustprogress uwtable
define hidden noundef ptr @_Z16luaO_pushfstringP9lua_StatePKcz(ptr noundef %0, ptr noundef %1, ...) #2 {
  %3 = alloca ptr, align 8
  %4 = alloca ptr, align 8
  %5 = alloca ptr, align 8
  %6 = alloca [1 x %struct.__va_list_tag], align 16
  store ptr %0, ptr %3, align 8, !tbaa !29
  store ptr %1, ptr %4, align 8, !tbaa !22
  call void @llvm.lifetime.start.p0(i64 8, ptr %5) #9
  call void @llvm.lifetime.start.p0(i64 24, ptr %6) #9
  %7 = getelementptr inbounds [1 x %struct.__va_list_tag], ptr %6, i64 0, i64 0
  call void @llvm.va_start.p0(ptr %7)
  %8 = load ptr, ptr %3, align 8, !tbaa !29
  %9 = load ptr, ptr %4, align 8, !tbaa !22
  %10 = getelementptr inbounds [1 x %struct.__va_list_tag], ptr %6, i64 0, i64 0
  %11 = call noundef ptr @_Z17luaO_pushvfstringP9lua_StatePKcP13__va_list_tag(ptr noundef %8, ptr noundef %9, ptr noundef %10)
  store ptr %11, ptr %5, align 8, !tbaa !22
  %12 = getelementptr inbounds [1 x %struct.__va_list_tag], ptr %6, i64 0, i64 0
  call void @llvm.va_end.p0(ptr %12)
  %13 = load ptr, ptr %5, align 8, !tbaa !22
  call void @llvm.lifetime.end.p0(i64 24, ptr %6) #9
  call void @llvm.lifetime.end.p0(i64 8, ptr %5) #9
  ret ptr %13
}